target datalayout = "e-m:e-p270:32:32-p271:32:32-p272:64:64-i64:64-i128:128-f80:128-n8:16:32:64-S128"
target triple = "x86_64-pc-linux-gnu"

%struct.FT_Outline_ = type { i16, i16, ptr, ptr, ptr, i32 }

; Function Attrs: nounwind uwtable
define i32 @FT_Outline_Copy(ptr noundef %0, ptr noundef %1) #0 {
  %3 = alloca i32, align 4
  %4 = alloca ptr, align 8
  %5 = alloca ptr, align 8
  %6 = alloca i32, align 4
  %7 = alloca i32, align 4
  store ptr %0, ptr %4, align 8, !tbaa !212
  store ptr %1, ptr %5, align 8, !tbaa !212
  call void @llvm.lifetime.start.p0(i64 4, ptr %6) #10
  %8 = load ptr, ptr %4, align 8, !tbaa !212
  %9 = icmp ne ptr %8, null
  br i1 %9, label %10, label %13

10:                                               ; preds = %2
  %11 = load ptr, ptr %5, align 8, !tbaa !212
  %12 = icmp ne ptr %11, null
  br i1 %12, label %14, label %13

13:                                               ; preds = %10, %2
  store i32 20, ptr %3, align 4
  store i32 1, ptr %7, align 4
  br label %104

14:                                               ; preds = %10
  %15 = load ptr, ptr %4, align 8, !tbaa !212
  %16 = getelementptr inbounds nuw %struct.FT_Outline_, ptr %15, i32 0, i32 1
  %17 = load i16, ptr %16, align 2, !tbaa !215
  %18 = zext i16 %17 to i32
  %19 = load ptr, ptr %5, align 8, !tbaa !212
  %20 = getelementptr inbounds nuw %struct.FT_Outline_, ptr %19, i32 0, i32 1
  %21 = load i16, ptr %20, align 2, !tbaa !215
  %22 = zext i16 %21 to i32
  %23 = icmp ne i32 %18, %22
  br i1 %23, label %34, label %24

24:                                               ; preds = %14
  %25 = load ptr, ptr %4, align 8, !tbaa !212
  %26 = getelementptr inbounds nuw %struct.FT_Outline_, ptr %25, i32 0, i32 0
  %27 = load i16, ptr %26, align 8, !tbaa !218
  %28 = zext i16 %27 to i32
  %29 = load ptr, ptr %5, align 8, !tbaa !212
  %30 = getelementptr inbounds nuw %struct.FT_Outline_, ptr %29, i32 0, i32 0
  %31 = load i16, ptr %30, align 8, !tbaa !218
  %32 = zext i16 %31 to i32
  %33 = icmp ne i32 %28, %32
  br i1 %33, label %34, label %35

34:                                               ; preds = %24, %14
  store i32 6, ptr %3, align 4
  store i32 1, ptr %7, align 4
  br label %104

35:                                               ; preds = %24
  %36 = load ptr, ptr %4, align 8, !tbaa !212
  %37 = load ptr, ptr %5, align 8, !tbaa !212
  %38 = icmp eq ptr %36, %37
  br i1 %38, label %39, label %40

39:                                               ; preds = %35
  store i32 0, ptr %3, align 4
  store i32 1, ptr %7, align 4
  br label %104

40:                                               ; preds = %35
  %41 = load ptr, ptr %4, align 8, !tbaa !212
  %42 = getelementptr inbounds nuw %struct.FT_Outline_, ptr %41, i32 0, i32 1
  %43 = load i16, ptr %42, align 2, !tbaa !215
  %44 = icmp ne i16 %43, 0
  br i1 %44, label %45, label %68

45:                                               ; preds = %40
  %46 = load ptr, ptr %5, align 8, !tbaa !212
  %47 = getelementptr inbounds nuw %struct.FT_Outline_, ptr %46, i32 0, i32 2
  %48 = load ptr, ptr %47, align 8, !tbaa !214
  %49 = load ptr, ptr %4, align 8, !tbaa !212
  %50 = getelementptr inbounds nuw %struct.FT_Outline_, ptr %49, i32 0, i32 2
  %51 = load ptr, ptr %50, align 8, !tbaa !214
  %52 = load ptr, ptr %4, align 8, !tbaa !212
  %53 = getelementptr inbounds nuw %struct.FT_Outline_, ptr %52, i32 0, i32 1
  %54 = load i16, ptr %53, align 2, !tbaa !215
  %55 = zext i16 %54 to i64
  %56 = mul i64 %55, 16
  call void @llvm.memcpy.p0.p0.i64(ptr align 8 %48, ptr align 8 %51, i64 %56, i1 false)
  %57 = load ptr, ptr %5, align 8, !tbaa !212
  %58 = getelementptr inbounds nuw %struct.FT_Outline_, ptr %57, i32 0, i32 3
  %59 = load ptr, ptr %58, align 8, !tbaa !216
  %60 = load ptr, ptr %4, align 8, !tbaa !212
  %61 = getelementptr inbounds nuw %struct.FT_Outline_, ptr %60, i32 0, i32 3
  %62 = load ptr, ptr %61, align 8, !tbaa !216
  %63 = load ptr, ptr %4, align 8, !tbaa !212
  %64 = getelementptr inbounds nuw %struct.FT_Outline_, ptr %63, i32 0, i32 1
  %65 = load i16, ptr %64, align 2, !tbaa !215
  %66 = zext i16 %65 to i64
  %67 = mul i64 %66, 1
  call void @llvm.memcpy.p0.p0.i64(ptr align 1 %59, ptr align 1 %62, i64 %67, i1 false)
  br label %68

68:                                               ; preds = %45, %40
  %69 = load ptr, ptr %4, align 8, !tbaa !212
  %70 = getelementptr inbounds nuw %struct.FT_Outline_, ptr %69, i32 0, i32 0
  %71 = load i16, ptr %70, align 8, !tbaa !218
  %72 = icmp ne i16 %71, 0
  br i1 %72, label %73, label %85

73:                                               ; preds = %68
  %74 = load ptr, ptr %5, align 8, !tbaa !212
  %75 = getelementptr inbounds nuw %struct.FT_Outline_, ptr %74, i32 0, i32 4
  %76 = load ptr, ptr %75, align 8, !tbaa !217
  %77 = load ptr, ptr %4, align 8, !tbaa !212
  %78 = getelementptr inbounds nuw %struct.FT_Outline_, ptr %77, i32 0, i32 4
  %79 = load ptr, ptr %78, align 8, !tbaa !217
  %80 = load ptr, ptr %4, align 8, !tbaa !212
  %81 = getelementptr inbounds nuw %struct.FT_Outline_, ptr %80, i32 0, i32 0
  %82 = load i16, ptr %81, align 8, !tbaa !218
  %83 = zext i16 %82 to i64
  %84 = mul i64 %83, 2
  call void @llvm.memcpy.p0.p0.i64(ptr align 2 %76, ptr align 2 %79, i64 %84, i1 false)
  br label %85

85:                                               ; preds = %73, %68
  %86 = load ptr, ptr %5, align 8, !tbaa !212
  %87 = getelementptr inbounds nuw %struct.FT_Outline_, ptr %86, i32 0, i32 5
  %88 = load i32, ptr %87, align 8, !tbaa !594
  %89 = and i32 %88, 1
  store i32 %89, ptr %6, align 4, !tbaa !8
  %90 = load ptr, ptr %4, align 8, !tbaa !212
  %91 = getelementptr inbounds nuw %struct.FT_Outline_, ptr %90, i32 0, i32 5
  %92 = load i32, ptr %91, align 8, !tbaa !594
  %93 = load ptr, ptr %5, align 8, !tbaa !212
  %94 = getelementptr inbounds nuw %struct.FT_Outline_, ptr %93, i32 0, i32 5
  store i32 %92, ptr %94, align 8, !tbaa !594
  %95 = load ptr, ptr %5, align 8, !tbaa !212
  %96 = getelementptr inbounds nuw %struct.FT_Outline_, ptr %95, i32 0, i32 5
  %97 = load i32, ptr %96, align 8, !tbaa !594
  %98 = and i32 %97, -2
  store i32 %98, ptr %96, align 8, !tbaa !594
  %99 = load i32, ptr %6, align 4, !tbaa !8
  %100 = load ptr, ptr %5, align 8, !tbaa !212
  %101 = getelementptr inbounds nuw %struct.FT_Outline_, ptr %100, i32 0, i32 5
  %102 = load i32, ptr %101, align 8, !tbaa !594
  %103 = or i32 %102, %99
  store i32 %103, ptr %101, align 8, !tbaa !594
  store i32 0, ptr %3, align 4
  store i32 1, ptr %7, align 4
  br label %104

104:                                              ; preds = %85, %39, %34, %13
  call void @llvm.lifetime.end.p0(i64 4, ptr %6) #10
  %105 = load i32, ptr %3, align 4
  ret i32 %105
}