; Function Attrs: mustprogress nofree norecurse nosync nounwind willreturn memory(readwrite, inaccessiblemem: none) uwtable
define range(i32 0, 21) i32 @FT_Outline_Copy(ptr noundef readonly %0, ptr noundef %1) local_unnamed_addr #20 {
  %3 = icmp ne ptr %0, null
  %4 = icmp ne ptr %1, null
  %or.cond = and i1 %3, %4
  br i1 %or.cond, label %5, label %46

5:                                                ; preds = %2
  %6 = getelementptr inbounds nuw i8, ptr %0, i64 2
  %7 = load i16, ptr %6, align 2, !tbaa !129
  %8 = getelementptr inbounds nuw i8, ptr %1, i64 2
  %9 = load i16, ptr %8, align 2, !tbaa !129
  %.not = icmp eq i16 %7, %9
  br i1 %.not, label %10, label %46

10:                                               ; preds = %5
  %11 = load i16, ptr %0, align 8, !tbaa !130
  %12 = load i16, ptr %1, align 8, !tbaa !130
  %.not30 = icmp eq i16 %11, %12
  br i1 %.not30, label %13, label %46

13:                                               ; preds = %10
  %14 = icmp eq ptr %0, %1
  br i1 %14, label %46, label %15

15:                                               ; preds = %13
  %.not31 = icmp eq i16 %7, 0
  br i1 %.not31, label %29, label %16

16:                                               ; preds = %15
  %17 = getelementptr inbounds nuw i8, ptr %1, i64 8
  %18 = load ptr, ptr %17, align 8, !tbaa !156
  %19 = getelementptr inbounds nuw i8, ptr %0, i64 8
  %20 = load ptr, ptr %19, align 8, !tbaa !156
  %21 = zext i16 %7 to i64
  %22 = shl nuw nsw i64 %21, 4
  tail call void @llvm.memcpy.p0.p0.i64(ptr align 8 %18, ptr align 8 %20, i64 %22, i1 false)
  %23 = getelementptr inbounds nuw i8, ptr %1, i64 16
  %24 = load ptr, ptr %23, align 8, !tbaa !202
  %25 = getelementptr inbounds nuw i8, ptr %0, i64 16
  %26 = load ptr, ptr %25, align 8, !tbaa !202
  %27 = load i16, ptr %6, align 2, !tbaa !129
  %28 = zext i16 %27 to i64
  tail call void @llvm.memcpy.p0.p0.i64(ptr align 1 %24, ptr align 1 %26, i64 %28, i1 false)
  %.pre = load i16, ptr %0, align 8, !tbaa !130
  br label %29

29:                                               ; preds = %16, %15
  %30 = phi i16 [ %.pre, %16 ], [ %11, %15 ]
  %.not32 = icmp eq i16 %30, 0
  br i1 %.not32, label %38, label %31

31:                                               ; preds = %29
  %32 = getelementptr inbounds nuw i8, ptr %1, i64 24
  %33 = load ptr, ptr %32, align 8, !tbaa !131
  %34 = getelementptr inbounds nuw i8, ptr %0, i64 24
  %35 = load ptr, ptr %34, align 8, !tbaa !131
  %36 = zext i16 %30 to i64
  %37 = shl nuw nsw i64 %36, 1
  tail call void @llvm.memcpy.p0.p0.i64(ptr align 2 %33, ptr align 2 %35, i64 %37, i1 false)
  br label %38

38:                                               ; preds = %31, %29
  %39 = getelementptr inbounds nuw i8, ptr %1, i64 32
  %40 = load i32, ptr %39, align 8, !tbaa !487
  %41 = and i32 %40, 1
  %42 = getelementptr inbounds nuw i8, ptr %0, i64 32
  %43 = load i32, ptr %42, align 8, !tbaa !487
  %44 = and i32 %43, -2
  %45 = or disjoint i32 %44, %41
  store i32 %45, ptr %39, align 8, !tbaa !487
  br label %46

46:                                               ; preds = %13, %5, %10, %2, %38
  %.0 = phi i32 [ 0, %38 ], [ 20, %2 ], [ 6, %10 ], [ 6, %5 ], [ 0, %13 ]
  ret i32 %.0
}